target datalayout = "e-m:e-p270:32:32-p271:32:32-p272:64:64-i64:64-i128:128-f80:128-n8:16:32:64-S128"
target triple = "x86_64-pc-linux-gnu"

; Function Attrs: nounwind sspstrong uwtable
define internal i32 @allocation_info_tracer_compact_update_object_table_i(i64 noundef %0, i64 noundef %1, i64 noundef %2) #0 {
  %4 = alloca i32, align 4
  %5 = alloca i64, align 8
  %6 = alloca i64, align 8
  %7 = alloca i64, align 8
  %8 = alloca ptr, align 8
  %9 = alloca i32, align 4
  %10 = alloca i64, align 8
  store i64 %0, ptr %5, align 8, !tbaa !6
  store i64 %1, ptr %6, align 8, !tbaa !6
  store i64 %2, ptr %7, align 8, !tbaa !6
  call void @llvm.lifetime.start.p0(i64 8, ptr %8) #17
  %11 = load i64, ptr %7, align 8, !tbaa !6
  %12 = inttoptr i64 %11 to ptr
  store ptr %12, ptr %8, align 8, !tbaa !44
  %13 = load i64, ptr %5, align 8, !tbaa !6
  %14 = call zeroext i1 @rb_gc_pointer_to_heap_p(i64 noundef %13)
  br i1 %14, label %16, label %15

15:                                               ; preds = %3
  store i32 2, ptr %4, align 4
  store i32 1, ptr %9, align 4
  br label %34

16:                                               ; preds = %3
  %17 = load i64, ptr %5, align 8, !tbaa !6
  %18 = load i64, ptr %5, align 8, !tbaa !6
  %19 = call i64 @rb_gc_location(i64 noundef %18)
  %20 = icmp ne i64 %17, %19
  br i1 %20, label %21, label %33

21:                                               ; preds = %16
  call void @llvm.lifetime.start.p0(i64 8, ptr %10) #17
  %22 = call i64 @rb_gc_disable_no_rest()
  store i64 %22, ptr %10, align 8, !tbaa !6
  %23 = load ptr, ptr %8, align 8, !tbaa !44
  %24 = load i64, ptr %5, align 8, !tbaa !6
  %25 = call i64 @rb_gc_location(i64 noundef %24)
  %26 = load i64, ptr %6, align 8, !tbaa !6
  %27 = call i32 @rb_st_insert(ptr noundef %23, i64 noundef %25, i64 noundef %26)
  %28 = load i64, ptr %10, align 8, !tbaa !6
  %29 = icmp eq i64 %28, 0
  br i1 %29, label %30, label %32

30:                                               ; preds = %21
  %31 = call i64 @rb_gc_enable()
  br label %32

32:                                               ; preds = %30, %21
  store i32 2, ptr %4, align 4
  store i32 1, ptr %9, align 4
  call void @llvm.lifetime.end.p0(i64 8, ptr %10) #17
  br label %34

33:                                               ; preds = %16
  store i32 0, ptr %4, align 4
  store i32 1, ptr %9, align 4
  br label %34

34:                                               ; preds = %33, %32, %15
  call void @llvm.lifetime.end.p0(i64 8, ptr %8) #17
  %35 = load i32, ptr %4, align 4
  ret i32 %35
}