; Function Attrs: nounwind sspstrong uwtable
define internal range(i32 0, 3) i32 @allocation_info_tracer_compact_update_object_table_i(i64 noundef %0, i64 noundef %1, i64 noundef %2) #0 {
  %4 = inttoptr i64 %2 to ptr
  %5 = tail call zeroext i1 @rb_gc_pointer_to_heap_p(i64 noundef %0) #10
  br i1 %5, label %6, label %15

6:                                                ; preds = %3
  %7 = tail call i64 @rb_gc_location(i64 noundef %0) #10
  %.not = icmp eq i64 %0, %7
  br i1 %.not, label %15, label %8

8:                                                ; preds = %6
  %9 = tail call i64 @rb_gc_disable_no_rest() #10
  %10 = tail call i64 @rb_gc_location(i64 noundef %0) #10
  %11 = tail call i32 @rb_st_insert(ptr noundef %4, i64 noundef %10, i64 noundef %1) #10
  %12 = icmp eq i64 %9, 0
  br i1 %12, label %13, label %15

13:                                               ; preds = %8
  %14 = tail call i64 @rb_gc_enable() #10
  br label %15

15:                                               ; preds = %6, %8, %13, %3
  %.0 = phi i32 [ 2, %3 ], [ 2, %13 ], [ 2, %8 ], [ 0, %6 ]
  ret i32 %.0
}